(dp0
S'BOT'
p1
ccopy_reg
_reconstructor
p2
(crpg.rpg
RankingDetails
p3
c__builtin__
object
p4
Ntp5
Rp6
(dp7
S'steamid'
p8
g1
sS'xp'
p9
I6429
sS'name'
p10
S'Troy'
p11
sS'level'
p12
I7
sbsS'STEAM_0:1:29502257'
p13
g2
(g3
g4
Ntp14
Rp15
(dp16
g8
g13
sg9
I8834
sg10
S'nem-Rennnyyy'
p17
sg12
I8
sbs.